target datalayout = "e-m:e-p270:32:32-p271:32:32-p272:64:64-i64:64-i128:128-f80:128-n8:16:32:64-S128"
target triple = "x86_64-pc-linux-gnu"

%struct._zend_executor_globals = type { %struct._zval_struct, %struct._zval_struct, [32 x ptr], ptr, ptr, %struct._zend_array, %struct._zend_array, ptr, i32, i32, ptr, ptr, ptr, ptr, ptr, ptr, i64, ptr, ptr, i32, i32, i64, i32, i32, i32, i8, i8, %struct.zend_atomic_bool_s, %struct.zend_atomic_bool_s, ptr, i64, ptr, ptr, %struct._zend_array, %struct._zend_array, i32, i8, %struct._zval_struct, %struct._zval_struct, %struct._zend_stack, %struct._zend_stack, %struct._zend_stack, ptr, i32, i32, i64, ptr, ptr, ptr, %struct._zend_objects_store, ptr, ptr, ptr, [3 x %struct._zend_op], ptr, i8, i8, i64, i32, i32, ptr, [16 x %struct._HashTableIterator], ptr, %union._zend_function, %struct._zend_op, %struct._zend_array, i64, %struct.zend_get_gc_buffer, ptr, ptr, ptr, i64, i8, i32, ptr, ptr, i64, %struct._zend_call_stack, i64, i64, [6 x ptr] }
%struct.zend_atomic_bool_s = type { i8 }
%struct._zval_struct = type { %union._zend_value, %union.anon, %union.anon.2 }
%union._zend_value = type { i64 }
%union.anon = type { i32 }
%union.anon.2 = type { i32 }
%struct._zend_stack = type { i32, i32, i32, ptr }
%struct._zend_objects_store = type { ptr, i32, i32, i32 }
%struct._HashTableIterator = type { ptr, i32, i32 }
%union._zend_function = type { %struct._zend_op_array }
%struct._zend_op_array = type { i8, [3 x i8], i32, ptr, ptr, ptr, i32, i32, ptr, ptr, ptr, ptr, i32, i32, i32, i32, ptr, ptr, ptr, ptr, ptr, i32, i32, ptr, ptr, ptr, i32, i32, i32, i32, ptr, ptr, [6 x ptr] }
%struct._zend_op = type { ptr, %union._znode_op, %union._znode_op, %union._znode_op, i32, i32, i8, i8, i8, i8 }
%union._znode_op = type { i32 }
%struct._zend_array = type { %struct._zend_refcounted_h, %union.anon.4, i32, %union.anon.6, i32, i32, i32, i32, i64, ptr }
%struct._zend_refcounted_h = type { i32, %union.anon.3 }
%union.anon.3 = type { i32 }
%union.anon.4 = type { i32 }
%union.anon.6 = type { ptr }
%struct.zend_get_gc_buffer = type { ptr, ptr, ptr }
%struct._zend_call_stack = type { ptr, i64 }
%struct._zend_execute_data = type { ptr, ptr, ptr, ptr, %struct._zval_struct, ptr, ptr, ptr, ptr }
%struct._zend_string = type { %struct._zend_refcounted_h, i64, i64, [1 x i8] }

@zend_known_strings = external global ptr, align 8
@executor_globals = external global %struct._zend_executor_globals, align 8
@zend_ce_throwable = global ptr null, align 8
@.str.4 = private unnamed_addr constant [11 x i8] c"|SllS!l!O!\00", align 1
@zend_ce_exception = global ptr null, align 8

; Function Attrs: nounwind uwtable
define hidden void @zim_ErrorException___construct(ptr noundef %0, ptr noundef %1) #0 {
  %3 = alloca ptr, align 8
  %4 = alloca ptr, align 8
  %5 = alloca i32, align 4
  %6 = alloca i32, align 4
  %7 = alloca ptr, align 8
  %8 = alloca ptr, align 8
  %9 = alloca ptr, align 8
  %10 = alloca ptr, align 8
  %11 = alloca i64, align 8
  %12 = alloca i64, align 8
  %13 = alloca i64, align 8
  %14 = alloca i8, align 1
  %15 = alloca %struct._zval_struct, align 8
  %16 = alloca ptr, align 8
  %17 = alloca ptr, align 8
  %18 = alloca ptr, align 8
  %19 = alloca ptr, align 8
  %20 = alloca ptr, align 8
  %21 = alloca ptr, align 8
  %22 = alloca ptr, align 8
  %23 = alloca ptr, align 8
  %24 = alloca ptr, align 8
  %25 = alloca ptr, align 8
  store ptr %0, ptr %7, align 8
  store ptr %1, ptr %8, align 8
  store ptr null, ptr %9, align 8
  store ptr null, ptr %10, align 8
  store i64 0, ptr %11, align 8
  store i64 1, ptr %12, align 8
  store i8 1, ptr %14, align 1
  store ptr null, ptr %17, align 8
  %26 = load ptr, ptr %7, align 8
  %27 = getelementptr inbounds %struct._zend_execute_data, ptr %26, i32 0, i32 4
  %28 = getelementptr inbounds %struct._zval_struct, ptr %27, i32 0, i32 2
  %29 = load i32, ptr %28, align 4
  %30 = load ptr, ptr @zend_ce_throwable, align 8
  %31 = call i32 (i32, ptr, ...) @zend_parse_parameters(i32 noundef %29, ptr noundef @.str.4, ptr noundef %9, ptr noundef %11, ptr noundef %12, ptr noundef %10, ptr noundef %13, ptr noundef %14, ptr noundef %17, ptr noundef %30)
  %32 = icmp eq i32 %31, -1
  br i1 %32, label %33, label %38

33:                                               ; preds = %2
  br label %34

34:                                               ; preds = %33
  %35 = load ptr, ptr getelementptr inbounds (%struct._zend_executor_globals, ptr @executor_globals, i32 0, i32 50), align 8
  %36 = icmp ne ptr %35, null
  call void @llvm.assume(i1 %36)
  br label %194

37:                                               ; No predecessors!
  br label %38

38:                                               ; preds = %37, %2
  %39 = load ptr, ptr %7, align 8
  %40 = getelementptr inbounds %struct._zend_execute_data, ptr %39, i32 0, i32 4
  store ptr %40, ptr %16, align 8
  %41 = load ptr, ptr %9, align 8
  %42 = icmp ne ptr %41, null
  br i1 %42, label %43, label %77

43:                                               ; preds = %38
  br label %44

44:                                               ; preds = %43
  store ptr %15, ptr %18, align 8
  %45 = load ptr, ptr %9, align 8
  store ptr %45, ptr %19, align 8
  %46 = load ptr, ptr %19, align 8
  %47 = load ptr, ptr %18, align 8
  %48 = getelementptr inbounds %struct._zval_struct, ptr %47, i32 0, i32 0
  store ptr %46, ptr %48, align 8
  %49 = load ptr, ptr %19, align 8
  %50 = getelementptr inbounds %struct._zend_string, ptr %49, i32 0, i32 0
  %51 = getelementptr inbounds %struct._zend_refcounted_h, ptr %50, i32 0, i32 1
  %52 = load i32, ptr %51, align 4
  store i32 %52, ptr %5, align 4
  %53 = load i32, ptr %5, align 4
  %54 = and i32 %53, 1008
  %55 = and i32 %54, 64
  %56 = icmp ne i32 %55, 0
  br i1 %56, label %57, label %60

57:                                               ; preds = %44
  %58 = load ptr, ptr %18, align 8
  %59 = getelementptr inbounds %struct._zval_struct, ptr %58, i32 0, i32 1
  store i32 6, ptr %59, align 8
  br label %68

60:                                               ; preds = %44
  %61 = load ptr, ptr %19, align 8
  %62 = getelementptr inbounds %struct._zend_string, ptr %61, i32 0, i32 0
  store ptr %62, ptr %3, align 8
  %63 = load ptr, ptr %3, align 8
  %64 = load i32, ptr %63, align 4
  %65 = add i32 %64, 1
  store i32 %65, ptr %63, align 4
  %66 = load ptr, ptr %18, align 8
  %67 = getelementptr inbounds %struct._zval_struct, ptr %66, i32 0, i32 1
  store i32 262, ptr %67, align 8
  br label %68

68:                                               ; preds = %60, %57
  br label %69

69:                                               ; preds = %68
  %70 = load ptr, ptr @zend_ce_exception, align 8
  %71 = load ptr, ptr %16, align 8
  %72 = getelementptr inbounds %struct._zval_struct, ptr %71, i32 0, i32 0
  %73 = load ptr, ptr %72, align 8
  %74 = load ptr, ptr @zend_known_strings, align 8
  %75 = getelementptr inbounds ptr, ptr %74, i64 25
  %76 = load ptr, ptr %75, align 8
  call void @zend_update_property_ex(ptr noundef %70, ptr noundef %73, ptr noundef %76, ptr noundef %15)
  call void @zval_ptr_dtor(ptr noundef %15)
  br label %77

77:                                               ; preds = %69, %38
  %78 = load i64, ptr %11, align 8
  %79 = icmp ne i64 %78, 0
  br i1 %79, label %80, label %95

80:                                               ; preds = %77
  br label %81

81:                                               ; preds = %80
  store ptr %15, ptr %20, align 8
  %82 = load i64, ptr %11, align 8
  %83 = load ptr, ptr %20, align 8
  %84 = getelementptr inbounds %struct._zval_struct, ptr %83, i32 0, i32 0
  store i64 %82, ptr %84, align 8
  %85 = load ptr, ptr %20, align 8
  %86 = getelementptr inbounds %struct._zval_struct, ptr %85, i32 0, i32 1
  store i32 4, ptr %86, align 8
  br label %87

87:                                               ; preds = %81
  %88 = load ptr, ptr @zend_ce_exception, align 8
  %89 = load ptr, ptr %16, align 8
  %90 = getelementptr inbounds %struct._zval_struct, ptr %89, i32 0, i32 0
  %91 = load ptr, ptr %90, align 8
  %92 = load ptr, ptr @zend_known_strings, align 8
  %93 = getelementptr inbounds ptr, ptr %92, i64 24
  %94 = load ptr, ptr %93, align 8
  call void @zend_update_property_ex(ptr noundef %88, ptr noundef %91, ptr noundef %94, ptr noundef %15)
  br label %95

95:                                               ; preds = %87, %77
  %96 = load ptr, ptr %17, align 8
  %97 = icmp ne ptr %96, null
  br i1 %97, label %98, label %107

98:                                               ; preds = %95
  %99 = load ptr, ptr @zend_ce_exception, align 8
  %100 = load ptr, ptr %16, align 8
  %101 = getelementptr inbounds %struct._zval_struct, ptr %100, i32 0, i32 0
  %102 = load ptr, ptr %101, align 8
  %103 = load ptr, ptr @zend_known_strings, align 8
  %104 = getelementptr inbounds ptr, ptr %103, i64 23
  %105 = load ptr, ptr %104, align 8
  %106 = load ptr, ptr %17, align 8
  call void @zend_update_property_ex(ptr noundef %99, ptr noundef %102, ptr noundef %105, ptr noundef %106)
  br label %107

107:                                              ; preds = %98, %95
  br label %108

108:                                              ; preds = %107
  store ptr %15, ptr %21, align 8
  %109 = load i64, ptr %12, align 8
  %110 = load ptr, ptr %21, align 8
  %111 = getelementptr inbounds %struct._zval_struct, ptr %110, i32 0, i32 0
  store i64 %109, ptr %111, align 8
  %112 = load ptr, ptr %21, align 8
  %113 = getelementptr inbounds %struct._zval_struct, ptr %112, i32 0, i32 1
  store i32 4, ptr %113, align 8
  br label %114

114:                                              ; preds = %108
  %115 = load ptr, ptr @zend_ce_exception, align 8
  %116 = load ptr, ptr %16, align 8
  %117 = getelementptr inbounds %struct._zval_struct, ptr %116, i32 0, i32 0
  %118 = load ptr, ptr %117, align 8
  %119 = load ptr, ptr @zend_known_strings, align 8
  %120 = getelementptr inbounds ptr, ptr %119, i64 26
  %121 = load ptr, ptr %120, align 8
  call void @zend_update_property_ex(ptr noundef %115, ptr noundef %118, ptr noundef %121, ptr noundef %15)
  %122 = load ptr, ptr %10, align 8
  %123 = icmp ne ptr %122, null
  br i1 %123, label %124, label %158

124:                                              ; preds = %114
  br label %125

125:                                              ; preds = %124
  store ptr %15, ptr %22, align 8
  %126 = load ptr, ptr %10, align 8
  store ptr %126, ptr %23, align 8
  %127 = load ptr, ptr %23, align 8
  %128 = load ptr, ptr %22, align 8
  %129 = getelementptr inbounds %struct._zval_struct, ptr %128, i32 0, i32 0
  store ptr %127, ptr %129, align 8
  %130 = load ptr, ptr %23, align 8
  %131 = getelementptr inbounds %struct._zend_string, ptr %130, i32 0, i32 0
  %132 = getelementptr inbounds %struct._zend_refcounted_h, ptr %131, i32 0, i32 1
  %133 = load i32, ptr %132, align 4
  store i32 %133, ptr %6, align 4
  %134 = load i32, ptr %6, align 4
  %135 = and i32 %134, 1008
  %136 = and i32 %135, 64
  %137 = icmp ne i32 %136, 0
  br i1 %137, label %138, label %141

138:                                              ; preds = %125
  %139 = load ptr, ptr %22, align 8
  %140 = getelementptr inbounds %struct._zval_struct, ptr %139, i32 0, i32 1
  store i32 6, ptr %140, align 8
  br label %149

141:                                              ; preds = %125
  %142 = load ptr, ptr %23, align 8
  %143 = getelementptr inbounds %struct._zend_string, ptr %142, i32 0, i32 0
  store ptr %143, ptr %4, align 8
  %144 = load ptr, ptr %4, align 8
  %145 = load i32, ptr %144, align 4
  %146 = add i32 %145, 1
  store i32 %146, ptr %144, align 4
  %147 = load ptr, ptr %22, align 8
  %148 = getelementptr inbounds %struct._zval_struct, ptr %147, i32 0, i32 1
  store i32 262, ptr %148, align 8
  br label %149

149:                                              ; preds = %141, %138
  br label %150

150:                                              ; preds = %149
  %151 = load ptr, ptr @zend_ce_exception, align 8
  %152 = load ptr, ptr %16, align 8
  %153 = getelementptr inbounds %struct._zval_struct, ptr %152, i32 0, i32 0
  %154 = load ptr, ptr %153, align 8
  %155 = load ptr, ptr @zend_known_strings, align 8
  %156 = getelementptr inbounds ptr, ptr %155, i64 0
  %157 = load ptr, ptr %156, align 8
  call void @zend_update_property_ex(ptr noundef %151, ptr noundef %154, ptr noundef %157, ptr noundef %15)
  call void @zval_ptr_dtor(ptr noundef %15)
  br label %158

158:                                              ; preds = %150, %114
  %159 = load i8, ptr %14, align 1
  %160 = trunc i8 %159 to i1
  br i1 %160, label %176, label %161

161:                                              ; preds = %158
  br label %162

162:                                              ; preds = %161
  store ptr %15, ptr %24, align 8
  %163 = load i64, ptr %13, align 8
  %164 = load ptr, ptr %24, align 8
  %165 = getelementptr inbounds %struct._zval_struct, ptr %164, i32 0, i32 0
  store i64 %163, ptr %165, align 8
  %166 = load ptr, ptr %24, align 8
  %167 = getelementptr inbounds %struct._zval_struct, ptr %166, i32 0, i32 1
  store i32 4, ptr %167, align 8
  br label %168

168:                                              ; preds = %162
  %169 = load ptr, ptr @zend_ce_exception, align 8
  %170 = load ptr, ptr %16, align 8
  %171 = getelementptr inbounds %struct._zval_struct, ptr %170, i32 0, i32 0
  %172 = load ptr, ptr %171, align 8
  %173 = load ptr, ptr @zend_known_strings, align 8
  %174 = getelementptr inbounds ptr, ptr %173, i64 1
  %175 = load ptr, ptr %174, align 8
  call void @zend_update_property_ex(ptr noundef %169, ptr noundef %172, ptr noundef %175, ptr noundef %15)
  br label %194

176:                                              ; preds = %158
  %177 = load ptr, ptr %10, align 8
  %178 = icmp ne ptr %177, null
  br i1 %178, label %179, label %193

179:                                              ; preds = %176
  br label %180

180:                                              ; preds = %179
  store ptr %15, ptr %25, align 8
  %181 = load ptr, ptr %25, align 8
  %182 = getelementptr inbounds %struct._zval_struct, ptr %181, i32 0, i32 0
  store i64 0, ptr %182, align 8
  %183 = load ptr, ptr %25, align 8
  %184 = getelementptr inbounds %struct._zval_struct, ptr %183, i32 0, i32 1
  store i32 4, ptr %184, align 8
  br label %185

185:                                              ; preds = %180
  %186 = load ptr, ptr @zend_ce_exception, align 8
  %187 = load ptr, ptr %16, align 8
  %188 = getelementptr inbounds %struct._zval_struct, ptr %187, i32 0, i32 0
  %189 = load ptr, ptr %188, align 8
  %190 = load ptr, ptr @zend_known_strings, align 8
  %191 = getelementptr inbounds ptr, ptr %190, i64 1
  %192 = load ptr, ptr %191, align 8
  call void @zend_update_property_ex(ptr noundef %186, ptr noundef %189, ptr noundef %192, ptr noundef %15)
  br label %193

193:                                              ; preds = %185, %176
  br label %194

194:                                              ; preds = %193, %168, %34
  ret void
}