; Function Attrs: nounwind uwtable
define hidden void @zim_ErrorException___construct(ptr nocapture noundef readonly %0, ptr nocapture readnone %1) #0 {
  %3 = alloca ptr, align 8
  %4 = alloca ptr, align 8
  %5 = alloca i64, align 8
  %6 = alloca i64, align 8
  %7 = alloca i64, align 8
  %8 = alloca i8, align 1
  %9 = alloca %struct._zval_struct, align 8
  %10 = alloca ptr, align 8
  store ptr null, ptr %3, align 8
  store ptr null, ptr %4, align 8
  store i64 0, ptr %5, align 8
  store i64 1, ptr %6, align 8
  store i8 1, ptr %8, align 1
  store ptr null, ptr %10, align 8
  %11 = getelementptr inbounds i8, ptr %0, i64 32
  %12 = getelementptr inbounds i8, ptr %0, i64 44
  %13 = load i32, ptr %12, align 4
  %14 = load ptr, ptr @zend_ce_throwable, align 8
  %15 = call i32 (i32, ptr, ...) @zend_parse_parameters(i32 noundef %13, ptr noundef nonnull @.str.4, ptr noundef nonnull %3, ptr noundef nonnull %5, ptr noundef nonnull %6, ptr noundef nonnull %4, ptr noundef nonnull %7, ptr noundef nonnull %8, ptr noundef nonnull %10, ptr noundef %14) #15
  %16 = icmp eq i32 %15, -1
  br i1 %16, label %17, label %20

17:                                               ; preds = %2
  %18 = load ptr, ptr getelementptr inbounds (%struct._zend_executor_globals, ptr @executor_globals, i64 0, i32 50), align 8
  %19 = icmp ne ptr %18, null
  call void @llvm.assume(i1 %19)
  br label %92

20:                                               ; preds = %2
  %21 = load ptr, ptr %3, align 8
  %.not = icmp eq ptr %21, null
  br i1 %.not, label %36, label %22

22:                                               ; preds = %20
  store ptr %21, ptr %9, align 8
  %23 = getelementptr inbounds i8, ptr %21, i64 4
  %24 = load i32, ptr %23, align 4
  %25 = and i32 %24, 64
  %.not35 = icmp eq i32 %25, 0
  br i1 %.not35, label %26, label %29

26:                                               ; preds = %22
  %27 = load i32, ptr %21, align 4
  %28 = add i32 %27, 1
  store i32 %28, ptr %21, align 4
  br label %29

29:                                               ; preds = %22, %26
  %.sink = phi i32 [ 262, %26 ], [ 6, %22 ]
  %30 = getelementptr inbounds i8, ptr %9, i64 8
  store i32 %.sink, ptr %30, align 8
  %31 = load ptr, ptr @zend_ce_exception, align 8
  %32 = load ptr, ptr %11, align 8
  %33 = load ptr, ptr @zend_known_strings, align 8
  %34 = getelementptr inbounds i8, ptr %33, i64 200
  %35 = load ptr, ptr %34, align 8
  call void @zend_update_property_ex(ptr noundef %31, ptr noundef %32, ptr noundef %35, ptr noundef nonnull %9) #15
  call void @zval_ptr_dtor(ptr noundef nonnull %9) #15
  br label %36

36:                                               ; preds = %29, %20
  %37 = load i64, ptr %5, align 8
  %.not36 = icmp eq i64 %37, 0
  br i1 %.not36, label %45, label %38

38:                                               ; preds = %36
  store i64 %37, ptr %9, align 8
  %39 = getelementptr inbounds i8, ptr %9, i64 8
  store i32 4, ptr %39, align 8
  %40 = load ptr, ptr @zend_ce_exception, align 8
  %41 = load ptr, ptr %11, align 8
  %42 = load ptr, ptr @zend_known_strings, align 8
  %43 = getelementptr inbounds i8, ptr %42, i64 192
  %44 = load ptr, ptr %43, align 8
  call void @zend_update_property_ex(ptr noundef %40, ptr noundef %41, ptr noundef %44, ptr noundef nonnull %9) #15
  br label %45

45:                                               ; preds = %38, %36
  %46 = load ptr, ptr %10, align 8
  %.not37 = icmp eq ptr %46, null
  br i1 %.not37, label %53, label %47

47:                                               ; preds = %45
  %48 = load ptr, ptr @zend_ce_exception, align 8
  %49 = load ptr, ptr %11, align 8
  %50 = load ptr, ptr @zend_known_strings, align 8
  %51 = getelementptr inbounds i8, ptr %50, i64 184
  %52 = load ptr, ptr %51, align 8
  call void @zend_update_property_ex(ptr noundef %48, ptr noundef %49, ptr noundef %52, ptr noundef nonnull %46) #15
  br label %53

53:                                               ; preds = %45, %47
  %54 = load i64, ptr %6, align 8
  store i64 %54, ptr %9, align 8
  %55 = getelementptr inbounds i8, ptr %9, i64 8
  store i32 4, ptr %55, align 8
  %56 = load ptr, ptr @zend_ce_exception, align 8
  %57 = load ptr, ptr %11, align 8
  %58 = load ptr, ptr @zend_known_strings, align 8
  %59 = getelementptr inbounds i8, ptr %58, i64 208
  %60 = load ptr, ptr %59, align 8
  call void @zend_update_property_ex(ptr noundef %56, ptr noundef %57, ptr noundef %60, ptr noundef nonnull %9) #15
  %61 = load ptr, ptr %4, align 8
  %.not38 = icmp eq ptr %61, null
  br i1 %.not38, label %74, label %62

62:                                               ; preds = %53
  store ptr %61, ptr %9, align 8
  %63 = getelementptr inbounds i8, ptr %61, i64 4
  %64 = load i32, ptr %63, align 4
  %65 = and i32 %64, 64
  %.not39 = icmp eq i32 %65, 0
  br i1 %.not39, label %66, label %69

66:                                               ; preds = %62
  %67 = load i32, ptr %61, align 4
  %68 = add i32 %67, 1
  store i32 %68, ptr %61, align 4
  br label %69

69:                                               ; preds = %62, %66
  %storemerge = phi i32 [ 262, %66 ], [ 6, %62 ]
  store i32 %storemerge, ptr %55, align 8
  %70 = load ptr, ptr @zend_ce_exception, align 8
  %71 = load ptr, ptr %11, align 8
  %72 = load ptr, ptr @zend_known_strings, align 8
  %73 = load ptr, ptr %72, align 8
  call void @zend_update_property_ex(ptr noundef %70, ptr noundef %71, ptr noundef %73, ptr noundef nonnull %9) #15
  call void @zval_ptr_dtor(ptr noundef nonnull %9) #15
  br label %74

74:                                               ; preds = %69, %53
  %75 = load i8, ptr %8, align 1
  %76 = and i8 %75, 1
  %.not40 = icmp eq i8 %76, 0
  br i1 %.not40, label %77, label %84

77:                                               ; preds = %74
  %78 = load i64, ptr %7, align 8
  store i64 %78, ptr %9, align 8
  store i32 4, ptr %55, align 8
  %79 = load ptr, ptr @zend_ce_exception, align 8
  %80 = load ptr, ptr %11, align 8
  %81 = load ptr, ptr @zend_known_strings, align 8
  %82 = getelementptr inbounds i8, ptr %81, i64 8
  %83 = load ptr, ptr %82, align 8
  call void @zend_update_property_ex(ptr noundef %79, ptr noundef %80, ptr noundef %83, ptr noundef nonnull %9) #15
  br label %92

84:                                               ; preds = %74
  %85 = load ptr, ptr %4, align 8
  %.not41 = icmp eq ptr %85, null
  br i1 %.not41, label %92, label %86

86:                                               ; preds = %84
  store i64 0, ptr %9, align 8
  store i32 4, ptr %55, align 8
  %87 = load ptr, ptr @zend_ce_exception, align 8
  %88 = load ptr, ptr %11, align 8
  %89 = load ptr, ptr @zend_known_strings, align 8
  %90 = getelementptr inbounds i8, ptr %89, i64 8
  %91 = load ptr, ptr %90, align 8
  call void @zend_update_property_ex(ptr noundef %87, ptr noundef %88, ptr noundef %91, ptr noundef nonnull %9) #15
  br label %92

92:                                               ; preds = %84, %86, %77, %17
  ret void
}